; Function Attrs: nounwind uwtable
define void @jpeg_save_markers(ptr noundef %0, i32 noundef %1, i32 noundef %2) local_unnamed_addr #0 {
  %4 = getelementptr inbounds nuw i8, ptr %0, i64 584
  %5 = load ptr, ptr %4, align 8, !tbaa !41
  %6 = getelementptr inbounds nuw i8, ptr %0, i64 8
  %7 = load ptr, ptr %6, align 8, !tbaa !46
  %8 = getelementptr inbounds nuw i8, ptr %7, i64 96
  %9 = load i64, ptr %8, align 8, !tbaa !104
  %10 = add i64 %9, -32
  %11 = zext i32 %2 to i64
  %spec.select50 = tail call i64 @llvm.smin.i64(i64 %10, i64 %11)
  %spec.select = trunc i64 %spec.select50 to i32
  %.not = icmp eq i32 %spec.select, 0
  %12 = icmp eq i32 %1, 224
  br i1 %.not, label %18, label %13

13:                                               ; preds = %3
  %14 = icmp ult i32 %spec.select, 14
  %or.cond = and i1 %12, %14
  br i1 %or.cond, label %.thread44, label %15

15:                                               ; preds = %13
  %16 = icmp eq i32 %1, 238
  %17 = tail call i32 @llvm.umax.i32(i32 %spec.select, i32 12)
  %spec.store.select = select i1 %16, i32 %17, i32 %spec.select
  br label %20

18:                                               ; preds = %3
  %19 = icmp eq i32 %1, 238
  %or.cond5 = or i1 %12, %19
  %spec.store.select8 = select i1 %or.cond5, ptr @get_interesting_appn, ptr @skip_variable
  br label %20

20:                                               ; preds = %18, %15
  %.1 = phi i32 [ %spec.store.select, %15 ], [ 0, %18 ]
  %.0 = phi ptr [ @save_marker, %15 ], [ %spec.store.select8, %18 ]
  %21 = icmp eq i32 %1, 254
  br i1 %21, label %22, label %25

22:                                               ; preds = %20
  %23 = getelementptr inbounds nuw i8, ptr %5, i64 40
  store ptr %.0, ptr %23, align 8, !tbaa !53
  %24 = getelementptr inbounds nuw i8, ptr %5, i64 176
  store i32 %.1, ptr %24, align 8, !tbaa !54
  br label %39

25:                                               ; preds = %20
  %26 = and i32 %1, -16
  %or.cond7 = icmp eq i32 %26, 224
  br i1 %or.cond7, label %.thread44, label %33

.thread44:                                        ; preds = %13, %25
  %.14249 = phi i32 [ %.1, %25 ], [ 14, %13 ]
  %.04348 = phi ptr [ %.0, %25 ], [ @save_marker, %13 ]
  %27 = getelementptr inbounds nuw i8, ptr %5, i64 48
  %28 = add nsw i32 %1, -224
  %29 = zext nneg i32 %28 to i64
  %30 = getelementptr inbounds nuw [16 x ptr], ptr %27, i64 0, i64 %29
  store ptr %.04348, ptr %30, align 8, !tbaa !55
  %31 = getelementptr inbounds nuw i8, ptr %5, i64 180
  %32 = getelementptr inbounds nuw [16 x i32], ptr %31, i64 0, i64 %29
  store i32 %.14249, ptr %32, align 4, !tbaa !56
  br label %39

33:                                               ; preds = %25
  %34 = load ptr, ptr %0, align 8, !tbaa !30
  %35 = getelementptr inbounds nuw i8, ptr %34, i64 40
  store i32 68, ptr %35, align 8, !tbaa !31
  %36 = getelementptr inbounds nuw i8, ptr %34, i64 44
  store i32 %1, ptr %36, align 4, !tbaa !34
  %37 = load ptr, ptr %0, align 8, !tbaa !30
  %38 = load ptr, ptr %37, align 8, !tbaa !65
  tail call void %38(ptr noundef nonnull %0) #7
  br label %39

39:                                               ; preds = %.thread44, %33, %22
  ret void
}